; Function Attrs: mustprogress nounwind uwtable
define hidden void @_ZN4cvc58internal8decision11JustifyInfoD2Ev(ptr noundef nonnull align 8 dereferenceable(144) %this) unnamed_addr #4 align 2 personality ptr @__gxx_personality_v0 {
entry:
  %d_childIndex = getelementptr inbounds i8, ptr %this, i64 96
  store ptr getelementptr inbounds ({ [6 x ptr] }, ptr @_ZTVN4cvc57context3CDOImEE, i64 0, i32 0, i64 2), ptr %d_childIndex, align 8
  invoke void @_ZN4cvc57context10ContextObj7destroyEv(ptr noundef nonnull align 8 dereferenceable(40) %d_childIndex)
          to label %_ZN4cvc57context3CDOImED2Ev.exit unwind label %terminate.lpad.i

terminate.lpad.i:                                 ; preds = %entry
  %0 = landingpad { ptr, i32 }
          catch ptr null
  %1 = extractvalue { ptr, i32 } %0, 0
  tail call void @__clang_call_terminate(ptr %1) #14
  unreachable

_ZN4cvc57context3CDOImED2Ev.exit:                 ; preds = %entry
  %d_desiredVal = getelementptr inbounds i8, ptr %this, i64 48
  store ptr getelementptr inbounds ({ [6 x ptr] }, ptr @_ZTVN4cvc57context3CDOINS_8internal4prop8SatValueEEE, i64 0, i32 0, i64 2), ptr %d_desiredVal, align 8
  invoke void @_ZN4cvc57context10ContextObj7destroyEv(ptr noundef nonnull align 8 dereferenceable(40) %d_desiredVal)
          to label %_ZN4cvc57context3CDOINS_8internal4prop8SatValueEED2Ev.exit unwind label %terminate.lpad.i1

terminate.lpad.i1:                                ; preds = %_ZN4cvc57context3CDOImED2Ev.exit
  %2 = landingpad { ptr, i32 }
          catch ptr null
  %3 = extractvalue { ptr, i32 } %2, 0
  tail call void @__clang_call_terminate(ptr %3) #14
  unreachable

_ZN4cvc57context3CDOINS_8internal4prop8SatValueEED2Ev.exit: ; preds = %_ZN4cvc57context3CDOImED2Ev.exit
  store ptr getelementptr inbounds ({ [6 x ptr] }, ptr @_ZTVN4cvc57context3CDOINS_8internal12NodeTemplateILb0EEEEE, i64 0, i32 0, i64 2), ptr %this, align 8
  invoke void @_ZN4cvc57context10ContextObj7destroyEv(ptr noundef nonnull align 8 dereferenceable(40) %this)
          to label %_ZN4cvc57context3CDOINS_8internal12NodeTemplateILb0EEEED2Ev.exit unwind label %terminate.lpad.i2

terminate.lpad.i2:                                ; preds = %_ZN4cvc57context3CDOINS_8internal4prop8SatValueEED2Ev.exit
  %4 = landingpad { ptr, i32 }
          catch ptr null
  %5 = extractvalue { ptr, i32 } %4, 0
  tail call void @__clang_call_terminate(ptr %5) #14
  unreachable

_ZN4cvc57context3CDOINS_8internal12NodeTemplateILb0EEEED2Ev.exit: ; preds = %_ZN4cvc57context3CDOINS_8internal4prop8SatValueEED2Ev.exit
  ret void
}